target datalayout = "e-m:e-p270:32:32-p271:32:32-p272:64:64-i64:64-i128:128-f80:128-n8:16:32:64-S128"
target triple = "x86_64-pc-linux-gnu"

%struct.pac_s = type { %struct.pai_s, %struct.ecache_s, %struct.ecache_s, %struct.ecache_s, ptr, ptr, ptr, %struct.exp_grow_s, %struct.malloc_mutex_s, %struct.san_bump_alloc_s, %struct.atomic_zu_t, %struct.decay_s, %struct.decay_s, ptr, ptr, %struct.atomic_zu_t }
%struct.pai_s = type { ptr, ptr, ptr, ptr, ptr, ptr, ptr }
%struct.ecache_s = type { %struct.malloc_mutex_s, %struct.eset_s, %struct.eset_s, i32, i32, i8 }
%struct.eset_s = type { [4 x i64], [200 x %struct.eset_bin_s], [200 x %struct.eset_bin_stats_s], %struct.edata_list_inactive_t, %struct.atomic_zu_t, i32 }
%struct.eset_bin_s = type { %struct.edata_heap_t, %struct.edata_cmp_summary_s }
%struct.edata_heap_t = type { %struct.ph_s }
%struct.ph_s = type { ptr, i64 }
%struct.edata_cmp_summary_s = type { i64, i64 }
%struct.eset_bin_stats_s = type { %struct.atomic_zu_t, %struct.atomic_zu_t }
%struct.edata_list_inactive_t = type { %struct.anon.1 }
%struct.anon.1 = type { ptr }
%struct.exp_grow_s = type { i32, i32 }
%struct.malloc_mutex_s = type { %union.anon }
%union.anon = type { %struct.anon }
%struct.anon = type { %struct.mutex_prof_data_t, %union.pthread_mutex_t, %struct.atomic_b_t }
%struct.mutex_prof_data_t = type { %struct.nstime_t, %struct.nstime_t, i64, i64, i32, %struct.atomic_u32_t, i64, ptr, i64 }
%struct.nstime_t = type { i64 }
%struct.atomic_u32_t = type { i32 }
%union.pthread_mutex_t = type { %struct.__pthread_mutex_s }
%struct.__pthread_mutex_s = type { i32, i32, i32, i32, i32, i16, i16, %struct.__pthread_internal_list }
%struct.__pthread_internal_list = type { ptr, ptr }
%struct.atomic_b_t = type { i8 }
%struct.san_bump_alloc_s = type { %struct.malloc_mutex_s, ptr }
%struct.decay_s = type { %struct.malloc_mutex_s, i8, %struct.atomic_zd_t, %struct.nstime_t, %struct.nstime_t, i64, %struct.nstime_t, i64, i64, [200 x i64], i64 }
%struct.atomic_zd_t = type { i64 }
%struct.atomic_zu_t = type { i64 }
%struct.ehooks_s = type { i32, %struct.atomic_p_t }
%struct.atomic_p_t = type { ptr }
%struct.extent_hooks_s = type { ptr, ptr, ptr, ptr, ptr, ptr, ptr, ptr, ptr }

; Function Attrs: alwaysinline nounwind uwtable
define internal i32 @atomic_enum_to_builtin(i32 noundef %0) #4 {
  %2 = alloca i32, align 4
  %3 = alloca i32, align 4
  store i32 %0, ptr %3, align 4, !tbaa !24
  %4 = load i32, ptr %3, align 4, !tbaa !24
  switch i32 %4, label %10 [
    i32 0, label %5
    i32 1, label %6
    i32 2, label %7
    i32 3, label %8
    i32 4, label %9
  ]

5:                                                ; preds = %1
  store i32 0, ptr %2, align 4
  br label %12

6:                                                ; preds = %1
  store i32 2, ptr %2, align 4
  br label %12

7:                                                ; preds = %1
  store i32 3, ptr %2, align 4
  br label %12

8:                                                ; preds = %1
  store i32 4, ptr %2, align 4
  br label %12

9:                                                ; preds = %1
  store i32 5, ptr %2, align 4
  br label %12

10:                                               ; preds = %1
  br label %11

11:                                               ; preds = %10
  unreachable

12:                                               ; preds = %5, %6, %7, %8, %9
  %13 = load i32, ptr %2, align 4
  ret i32 %13
}

; Function Attrs: alwaysinline nounwind uwtable
define internal ptr @atomic_load_p(ptr noundef %0, i32 noundef %1) #4 {
  %3 = alloca ptr, align 8
  %4 = alloca i32, align 4
  %5 = alloca ptr, align 8
  store ptr %0, ptr %3, align 8, !tbaa !17
  store i32 %1, ptr %4, align 4, !tbaa !24
  call void @llvm.lifetime.start.p0(i64 8, ptr %5) #8
  %6 = load ptr, ptr %3, align 8, !tbaa !17
  %7 = getelementptr inbounds nuw %struct.atomic_p_t, ptr %6, i32 0, i32 0
  %8 = load i32, ptr %4, align 4, !tbaa !24
  %9 = call i32 @atomic_enum_to_builtin(i32 noundef %8)
  switch i32 %9, label %10 [
    i32 1, label %12
    i32 2, label %12
    i32 5, label %14
  ]

10:                                               ; preds = %2
  %11 = load atomic i64, ptr %7 monotonic, align 8
  store i64 %11, ptr %5, align 8
  br label %16

12:                                               ; preds = %2, %2
  %13 = load atomic i64, ptr %7 acquire, align 8
  store i64 %13, ptr %5, align 8
  br label %16

14:                                               ; preds = %2
  %15 = load atomic i64, ptr %7 seq_cst, align 8
  store i64 %15, ptr %5, align 8
  br label %16

16:                                               ; preds = %14, %12, %10
  %17 = load ptr, ptr %5, align 8, !tbaa !17
  call void @llvm.lifetime.end.p0(i64 8, ptr %5) #8
  ret ptr %17
}

; Function Attrs: inlinehint nounwind uwtable
define internal ptr @ehooks_get_extent_hooks_ptr(ptr noundef %0) #2 {
  %2 = alloca ptr, align 8
  store ptr %0, ptr %2, align 8, !tbaa !61
  %3 = load ptr, ptr %2, align 8, !tbaa !61
  %4 = getelementptr inbounds nuw %struct.ehooks_s, ptr %3, i32 0, i32 1
  %5 = call ptr @atomic_load_p(ptr noundef %4, i32 noundef 1)
  ret ptr %5
}

; Function Attrs: inlinehint nounwind uwtable
define internal zeroext i1 @ehooks_split_will_fail(ptr noundef %0) #2 {
  %2 = alloca ptr, align 8
  store ptr %0, ptr %2, align 8, !tbaa !61
  %3 = load ptr, ptr %2, align 8, !tbaa !61
  %4 = call ptr @ehooks_get_extent_hooks_ptr(ptr noundef %3)
  %5 = getelementptr inbounds nuw %struct.extent_hooks_s, ptr %4, i32 0, i32 7
  %6 = load ptr, ptr %5, align 8, !tbaa !88
  %7 = icmp eq ptr %6, null
  ret i1 %7
}

; Function Attrs: inlinehint nounwind uwtable
define internal ptr @pac_ehooks_get(ptr noundef %0) #2 {
  %2 = alloca ptr, align 8
  store ptr %0, ptr %2, align 8, !tbaa !9
  %3 = load ptr, ptr %2, align 8, !tbaa !9
  %4 = getelementptr inbounds nuw %struct.pac_s, ptr %3, i32 0, i32 4
  %5 = load ptr, ptr %4, align 8, !tbaa !26
  %6 = call ptr @je_base_ehooks_get(ptr noundef %5)
  ret ptr %6
}

; Function Attrs: nounwind uwtable
define internal zeroext i1 @pac_shrink_impl(ptr noundef %0, ptr noundef %1, ptr noundef %2, i64 noundef %3, i64 noundef %4, ptr noundef %5) #0 {
  %7 = alloca i1, align 1
  %8 = alloca ptr, align 8
  %9 = alloca ptr, align 8
  %10 = alloca ptr, align 8
  %11 = alloca i64, align 8
  %12 = alloca i64, align 8
  %13 = alloca ptr, align 8
  %14 = alloca ptr, align 8
  %15 = alloca ptr, align 8
  %16 = alloca i64, align 8
  %17 = alloca i32, align 4
  %18 = alloca ptr, align 8
  store ptr %0, ptr %8, align 8, !tbaa !4
  store ptr %1, ptr %9, align 8, !tbaa !57
  store ptr %2, ptr %10, align 8, !tbaa !63
  store i64 %3, ptr %11, align 8, !tbaa !18
  store i64 %4, ptr %12, align 8, !tbaa !18
  store ptr %5, ptr %13, align 8, !tbaa !59
  call void @llvm.lifetime.start.p0(i64 8, ptr %14) #8
  %19 = load ptr, ptr %9, align 8, !tbaa !57
  store ptr %19, ptr %14, align 8, !tbaa !9
  call void @llvm.lifetime.start.p0(i64 8, ptr %15) #8
  %20 = load ptr, ptr %14, align 8, !tbaa !9
  %21 = call ptr @pac_ehooks_get(ptr noundef %20)
  store ptr %21, ptr %15, align 8, !tbaa !61
  call void @llvm.lifetime.start.p0(i64 8, ptr %16) #8
  %22 = load i64, ptr %11, align 8, !tbaa !18
  %23 = load i64, ptr %12, align 8, !tbaa !18
  %24 = sub i64 %22, %23
  store i64 %24, ptr %16, align 8, !tbaa !18
  %25 = load ptr, ptr %15, align 8, !tbaa !61
  %26 = call zeroext i1 @ehooks_split_will_fail(ptr noundef %25)
  br i1 %26, label %27, label %28

27:                                               ; preds = %6
  store i1 true, ptr %7, align 1
  store i32 1, ptr %17, align 4
  br label %48

28:                                               ; preds = %6
  call void @llvm.lifetime.start.p0(i64 8, ptr %18) #8
  %29 = load ptr, ptr %8, align 8, !tbaa !4
  %30 = load ptr, ptr %14, align 8, !tbaa !9
  %31 = load ptr, ptr %15, align 8, !tbaa !61
  %32 = load ptr, ptr %10, align 8, !tbaa !63
  %33 = load i64, ptr %12, align 8, !tbaa !18
  %34 = load i64, ptr %16, align 8, !tbaa !18
  %35 = call ptr @je_extent_split_wrapper(ptr noundef %29, ptr noundef %30, ptr noundef %31, ptr noundef %32, i64 noundef %33, i64 noundef %34, i1 noundef zeroext false)
  store ptr %35, ptr %18, align 8, !tbaa !63
  %36 = load ptr, ptr %18, align 8, !tbaa !63
  %37 = icmp eq ptr %36, null
  br i1 %37, label %38, label %39

38:                                               ; preds = %28
  store i1 true, ptr %7, align 1
  store i32 1, ptr %17, align 4
  br label %47

39:                                               ; preds = %28
  %40 = load ptr, ptr %8, align 8, !tbaa !4
  %41 = load ptr, ptr %14, align 8, !tbaa !9
  %42 = load ptr, ptr %15, align 8, !tbaa !61
  %43 = load ptr, ptr %14, align 8, !tbaa !9
  %44 = getelementptr inbounds nuw %struct.pac_s, ptr %43, i32 0, i32 1
  %45 = load ptr, ptr %18, align 8, !tbaa !63
  call void @je_ecache_dalloc(ptr noundef %40, ptr noundef %41, ptr noundef %42, ptr noundef %44, ptr noundef %45)
  %46 = load ptr, ptr %13, align 8, !tbaa !59
  store i8 1, ptr %46, align 1, !tbaa !53
  store i1 false, ptr %7, align 1
  store i32 1, ptr %17, align 4
  br label %47

47:                                               ; preds = %39, %38
  call void @llvm.lifetime.end.p0(i64 8, ptr %18) #8
  br label %48

48:                                               ; preds = %47, %27
  call void @llvm.lifetime.end.p0(i64 8, ptr %16) #8
  call void @llvm.lifetime.end.p0(i64 8, ptr %15) #8
  call void @llvm.lifetime.end.p0(i64 8, ptr %14) #8
  %49 = load i1, ptr %7, align 1
  ret i1 %49
}