; Function Attrs: nounwind uwtable
define internal noundef zeroext i1 @pac_shrink_impl(ptr noundef %0, ptr noundef %1, ptr noundef %2, i64 noundef %3, i64 noundef %4, ptr noundef writeonly captures(none) %5) #0 {
  %7 = getelementptr i8, ptr %1, i64 58376
  %.val = load ptr, ptr %7, align 8, !tbaa !15
  %8 = tail call ptr @je_base_ehooks_get(ptr noundef %.val) #9
  %9 = getelementptr inbounds nuw i8, ptr %8, i64 8
  %10 = load atomic i64, ptr %9 acquire, align 8
  %.0.i.i.i = inttoptr i64 %10 to ptr
  %11 = getelementptr inbounds nuw i8, ptr %.0.i.i.i, i64 56
  %12 = load ptr, ptr %11, align 8, !tbaa !48
  %13 = icmp eq ptr %12, null
  br i1 %13, label %20, label %14

14:                                               ; preds = %6
  %15 = sub i64 %3, %4
  %16 = tail call ptr @je_extent_split_wrapper(ptr noundef %0, ptr noundef nonnull %1, ptr noundef nonnull %8, ptr noundef %2, i64 noundef %4, i64 noundef %15, i1 noundef zeroext false) #9
  %17 = icmp eq ptr %16, null
  br i1 %17, label %20, label %18

18:                                               ; preds = %14
  %19 = getelementptr inbounds nuw i8, ptr %1, i64 56
  tail call void @je_ecache_dalloc(ptr noundef %0, ptr noundef nonnull %1, ptr noundef nonnull %8, ptr noundef nonnull %19, ptr noundef nonnull %16) #9
  store i8 1, ptr %5, align 1, !tbaa !43
  br label %20

20:                                               ; preds = %18, %14, %6
  %.0 = phi i1 [ true, %6 ], [ true, %14 ], [ false, %18 ]
  ret i1 %.0
}